target datalayout = "e-m:e-p270:32:32-p271:32:32-p272:64:64-i64:64-i128:128-f80:128-n8:16:32:64-S128"
target triple = "x86_64-pc-linux-gnu"

%struct.AVIOContext = type { ptr, ptr, i32, ptr, ptr, ptr, ptr, ptr, ptr, i64, i32, i32, i32, i32, i32, i64, ptr, ptr, ptr, ptr, i32, i32, ptr, ptr, ptr, i32, ptr, i64, i64 }

; Function Attrs: nounwind uwtable
define i32 @ffio_rewind_with_probe_data(ptr noundef %0, ptr noundef %1, i32 noundef %2) #0 {
  %4 = alloca i32, align 4
  %5 = alloca ptr, align 8
  %6 = alloca ptr, align 8
  %7 = alloca i32, align 4
  %8 = alloca i64, align 8
  %9 = alloca i32, align 4
  %10 = alloca i32, align 4
  %11 = alloca i32, align 4
  %12 = alloca i32, align 4
  %13 = alloca ptr, align 8
  %14 = alloca i32, align 4
  store ptr %0, ptr %5, align 8, !tbaa !14
  store ptr %1, ptr %6, align 8, !tbaa !70
  store i32 %2, ptr %7, align 4, !tbaa !11
  call void @llvm.lifetime.start.p0(i64 8, ptr %8) #12
  call void @llvm.lifetime.start.p0(i64 4, ptr %9) #12
  call void @llvm.lifetime.start.p0(i64 4, ptr %10) #12
  call void @llvm.lifetime.start.p0(i64 4, ptr %11) #12
  call void @llvm.lifetime.start.p0(i64 4, ptr %12) #12
  call void @llvm.lifetime.start.p0(i64 8, ptr %13) #12
  %15 = load ptr, ptr %6, align 8, !tbaa !70
  %16 = load ptr, ptr %15, align 8, !tbaa !9
  store ptr %16, ptr %13, align 8, !tbaa !9
  %17 = load ptr, ptr %5, align 8, !tbaa !14
  %18 = getelementptr inbounds nuw %struct.AVIOContext, ptr %17, i32 0, i32 12
  %19 = load i32, ptr %18, align 8, !tbaa !46
  %20 = icmp ne i32 %19, 0
  br i1 %20, label %21, label %23

21:                                               ; preds = %3
  %22 = load ptr, ptr %6, align 8, !tbaa !70
  call void @av_freep(ptr noundef %22)
  store i32 -22, ptr %4, align 4
  store i32 1, ptr %14, align 4
  br label %127

23:                                               ; preds = %3
  %24 = load ptr, ptr %5, align 8, !tbaa !14
  %25 = getelementptr inbounds nuw %struct.AVIOContext, ptr %24, i32 0, i32 4
  %26 = load ptr, ptr %25, align 8, !tbaa !38
  %27 = load ptr, ptr %5, align 8, !tbaa !14
  %28 = getelementptr inbounds nuw %struct.AVIOContext, ptr %27, i32 0, i32 1
  %29 = load ptr, ptr %28, align 8, !tbaa !16
  %30 = ptrtoint ptr %26 to i64
  %31 = ptrtoint ptr %29 to i64
  %32 = sub i64 %30, %31
  %33 = trunc i64 %32 to i32
  store i32 %33, ptr %9, align 4, !tbaa !11
  %34 = load ptr, ptr %5, align 8, !tbaa !14
  %35 = getelementptr inbounds nuw %struct.AVIOContext, ptr %34, i32 0, i32 9
  %36 = load i64, ptr %35, align 8, !tbaa !30
  %37 = load i32, ptr %9, align 4, !tbaa !11
  %38 = sext i32 %37 to i64
  %39 = sub nsw i64 %36, %38
  store i64 %39, ptr %8, align 8, !tbaa !53
  %40 = load i32, ptr %7, align 4, !tbaa !11
  %41 = sext i32 %40 to i64
  %42 = icmp sgt i64 %39, %41
  br i1 %42, label %43, label %45

43:                                               ; preds = %23
  %44 = load ptr, ptr %6, align 8, !tbaa !70
  call void @av_freep(ptr noundef %44)
  store i32 -22, ptr %4, align 4
  store i32 1, ptr %14, align 4
  br label %127

45:                                               ; preds = %23
  %46 = load i32, ptr %7, align 4, !tbaa !11
  %47 = sext i32 %46 to i64
  %48 = load i64, ptr %8, align 8, !tbaa !53
  %49 = sub nsw i64 %47, %48
  %50 = trunc i64 %49 to i32
  store i32 %50, ptr %10, align 4, !tbaa !11
  %51 = load i32, ptr %7, align 4, !tbaa !11
  %52 = load i32, ptr %9, align 4, !tbaa !11
  %53 = add nsw i32 %51, %52
  %54 = load i32, ptr %10, align 4, !tbaa !11
  %55 = sub nsw i32 %53, %54
  store i32 %55, ptr %11, align 4, !tbaa !11
  %56 = load ptr, ptr %5, align 8, !tbaa !14
  %57 = getelementptr inbounds nuw %struct.AVIOContext, ptr %56, i32 0, i32 2
  %58 = load i32, ptr %57, align 8, !tbaa !20
  %59 = load i32, ptr %11, align 4, !tbaa !11
  %60 = icmp sgt i32 %58, %59
  br i1 %60, label %61, label %65

61:                                               ; preds = %45
  %62 = load ptr, ptr %5, align 8, !tbaa !14
  %63 = getelementptr inbounds nuw %struct.AVIOContext, ptr %62, i32 0, i32 2
  %64 = load i32, ptr %63, align 8, !tbaa !20
  br label %67

65:                                               ; preds = %45
  %66 = load i32, ptr %11, align 4, !tbaa !11
  br label %67

67:                                               ; preds = %65, %61
  %68 = phi i32 [ %64, %61 ], [ %66, %65 ]
  store i32 %68, ptr %12, align 4, !tbaa !11
  %69 = load i32, ptr %12, align 4, !tbaa !11
  %70 = load i32, ptr %7, align 4, !tbaa !11
  %71 = icmp sgt i32 %69, %70
  br i1 %71, label %72, label %81

72:                                               ; preds = %67
  %73 = load ptr, ptr %13, align 8, !tbaa !9
  %74 = load i32, ptr %12, align 4, !tbaa !11
  %75 = sext i32 %74 to i64
  %76 = call ptr @av_realloc_f(ptr noundef %73, i64 noundef 1, i64 noundef %75)
  %77 = load ptr, ptr %6, align 8, !tbaa !70
  store ptr %76, ptr %77, align 8, !tbaa !9
  store ptr %76, ptr %13, align 8, !tbaa !9
  %78 = icmp ne ptr %76, null
  br i1 %78, label %80, label %79

79:                                               ; preds = %72
  store i32 -12, ptr %4, align 4
  store i32 1, ptr %14, align 4
  br label %127

80:                                               ; preds = %72
  br label %81

81:                                               ; preds = %80, %67
  %82 = load i32, ptr %11, align 4, !tbaa !11
  %83 = load i32, ptr %7, align 4, !tbaa !11
  %84 = icmp sgt i32 %82, %83
  br i1 %84, label %85, label %101

85:                                               ; preds = %81
  %86 = load ptr, ptr %13, align 8, !tbaa !9
  %87 = load i32, ptr %7, align 4, !tbaa !11
  %88 = sext i32 %87 to i64
  %89 = getelementptr inbounds i8, ptr %86, i64 %88
  %90 = load ptr, ptr %5, align 8, !tbaa !14
  %91 = getelementptr inbounds nuw %struct.AVIOContext, ptr %90, i32 0, i32 1
  %92 = load ptr, ptr %91, align 8, !tbaa !16
  %93 = load i32, ptr %10, align 4, !tbaa !11
  %94 = sext i32 %93 to i64
  %95 = getelementptr inbounds i8, ptr %92, i64 %94
  %96 = load i32, ptr %9, align 4, !tbaa !11
  %97 = load i32, ptr %10, align 4, !tbaa !11
  %98 = sub nsw i32 %96, %97
  %99 = sext i32 %98 to i64
  call void @llvm.memcpy.p0.p0.i64(ptr align 1 %89, ptr align 1 %95, i64 %99, i1 false)
  %100 = load i32, ptr %11, align 4, !tbaa !11
  store i32 %100, ptr %7, align 4, !tbaa !11
  br label %101

101:                                              ; preds = %85, %81
  %102 = load ptr, ptr %5, align 8, !tbaa !14
  %103 = getelementptr inbounds nuw %struct.AVIOContext, ptr %102, i32 0, i32 1
  %104 = load ptr, ptr %103, align 8, !tbaa !16
  call void @av_free(ptr noundef %104)
  %105 = load ptr, ptr %13, align 8, !tbaa !9
  %106 = load ptr, ptr %5, align 8, !tbaa !14
  %107 = getelementptr inbounds nuw %struct.AVIOContext, ptr %106, i32 0, i32 1
  store ptr %105, ptr %107, align 8, !tbaa !16
  %108 = load ptr, ptr %5, align 8, !tbaa !14
  %109 = getelementptr inbounds nuw %struct.AVIOContext, ptr %108, i32 0, i32 3
  store ptr %105, ptr %109, align 8, !tbaa !23
  %110 = load i32, ptr %12, align 4, !tbaa !11
  %111 = load ptr, ptr %5, align 8, !tbaa !14
  %112 = getelementptr inbounds nuw %struct.AVIOContext, ptr %111, i32 0, i32 2
  store i32 %110, ptr %112, align 8, !tbaa !20
  %113 = load i32, ptr %7, align 4, !tbaa !11
  %114 = sext i32 %113 to i64
  %115 = load ptr, ptr %5, align 8, !tbaa !14
  %116 = getelementptr inbounds nuw %struct.AVIOContext, ptr %115, i32 0, i32 9
  store i64 %114, ptr %116, align 8, !tbaa !30
  %117 = load ptr, ptr %5, align 8, !tbaa !14
  %118 = getelementptr inbounds nuw %struct.AVIOContext, ptr %117, i32 0, i32 3
  %119 = load ptr, ptr %118, align 8, !tbaa !23
  %120 = load i32, ptr %7, align 4, !tbaa !11
  %121 = sext i32 %120 to i64
  %122 = getelementptr inbounds i8, ptr %119, i64 %121
  %123 = load ptr, ptr %5, align 8, !tbaa !14
  %124 = getelementptr inbounds nuw %struct.AVIOContext, ptr %123, i32 0, i32 4
  store ptr %122, ptr %124, align 8, !tbaa !38
  %125 = load ptr, ptr %5, align 8, !tbaa !14
  %126 = getelementptr inbounds nuw %struct.AVIOContext, ptr %125, i32 0, i32 10
  store i32 0, ptr %126, align 8, !tbaa !31
  store i32 0, ptr %4, align 4
  store i32 1, ptr %14, align 4
  br label %127

127:                                              ; preds = %101, %79, %43, %21
  call void @llvm.lifetime.end.p0(i64 8, ptr %13) #12
  call void @llvm.lifetime.end.p0(i64 4, ptr %12) #12
  call void @llvm.lifetime.end.p0(i64 4, ptr %11) #12
  call void @llvm.lifetime.end.p0(i64 4, ptr %10) #12
  call void @llvm.lifetime.end.p0(i64 4, ptr %9) #12
  call void @llvm.lifetime.end.p0(i64 8, ptr %8) #12
  %128 = load i32, ptr %4, align 4
  ret i32 %128
}