; Function Attrs: nounwind uwtable
define range(i32 -22, 1) i32 @ffio_rewind_with_probe_data(ptr noundef captures(none) %0, ptr noundef %1, i32 noundef %2) local_unnamed_addr #3 {
  %4 = load ptr, ptr %1, align 8, !tbaa !54
  %5 = getelementptr inbounds nuw i8, ptr %0, i64 88
  %6 = load i32, ptr %5, align 8, !tbaa !20
  %.not = icmp eq i32 %6, 0
  br i1 %.not, label %8, label %7

7:                                                ; preds = %3
  tail call void @av_freep(ptr noundef nonnull %1) #14
  br label %48

8:                                                ; preds = %3
  %9 = getelementptr inbounds nuw i8, ptr %0, i64 32
  %10 = load ptr, ptr %9, align 8, !tbaa !19
  %11 = getelementptr inbounds nuw i8, ptr %0, i64 8
  %12 = load ptr, ptr %11, align 8, !tbaa !4
  %13 = ptrtoint ptr %10 to i64
  %14 = ptrtoint ptr %12 to i64
  %15 = sub i64 %13, %14
  %16 = trunc i64 %15 to i32
  %17 = getelementptr inbounds nuw i8, ptr %0, i64 72
  %18 = load i64, ptr %17, align 8, !tbaa !27
  %sext = shl i64 %15, 32
  %19 = ashr exact i64 %sext, 32
  %20 = sub nsw i64 %18, %19
  %21 = sext i32 %2 to i64
  %22 = icmp sgt i64 %20, %21
  br i1 %22, label %23, label %24

23:                                               ; preds = %8
  tail call void @av_freep(ptr noundef nonnull %1) #14
  br label %48

24:                                               ; preds = %8
  %25 = trunc i64 %20 to i32
  %26 = sub i32 %2, %25
  %27 = add nsw i32 %2, %16
  %28 = sub i32 %27, %26
  %29 = getelementptr inbounds nuw i8, ptr %0, i64 16
  %30 = load i32, ptr %29, align 8, !tbaa !13
  %. = tail call i32 @llvm.smax.i32(i32 %30, i32 %28)
  %31 = icmp sgt i32 %., %2
  br i1 %31, label %32, label %35

32:                                               ; preds = %24
  %33 = sext i32 %. to i64
  %34 = tail call ptr @av_realloc_f(ptr noundef %4, i64 noundef 1, i64 noundef %33) #14
  store ptr %34, ptr %1, align 8, !tbaa !54
  %.not53 = icmp eq ptr %34, null
  br i1 %.not53, label %48, label %._crit_edge

._crit_edge:                                      ; preds = %32
  %.pre54.pre = load ptr, ptr %11, align 8, !tbaa !4
  br label %35

35:                                               ; preds = %._crit_edge, %24
  %.pre54 = phi ptr [ %.pre54.pre, %._crit_edge ], [ %12, %24 ]
  %.0 = phi ptr [ %34, %._crit_edge ], [ %4, %24 ]
  %36 = icmp sgt i32 %28, %2
  br i1 %36, label %37, label %43

37:                                               ; preds = %35
  %38 = getelementptr inbounds i8, ptr %.0, i64 %21
  %39 = sext i32 %26 to i64
  %40 = getelementptr inbounds i8, ptr %.pre54, i64 %39
  %41 = sub nsw i32 %16, %26
  %42 = sext i32 %41 to i64
  tail call void @llvm.memcpy.p0.p0.i64(ptr align 1 %38, ptr align 1 %40, i64 %42, i1 false)
  %.pre = load ptr, ptr %11, align 8, !tbaa !4
  %.pre56 = sext i32 %28 to i64
  br label %43

43:                                               ; preds = %37, %35
  %.pre-phi = phi i64 [ %.pre56, %37 ], [ %21, %35 ]
  %44 = phi ptr [ %.pre, %37 ], [ %.pre54, %35 ]
  tail call void @av_free(ptr noundef %44) #14
  store ptr %.0, ptr %11, align 8, !tbaa !4
  %45 = getelementptr inbounds nuw i8, ptr %0, i64 24
  store ptr %.0, ptr %45, align 8, !tbaa !16
  store i32 %., ptr %29, align 8, !tbaa !13
  store i64 %.pre-phi, ptr %17, align 8, !tbaa !27
  %46 = getelementptr inbounds i8, ptr %.0, i64 %.pre-phi
  store ptr %46, ptr %9, align 8, !tbaa !19
  %47 = getelementptr inbounds nuw i8, ptr %0, i64 80
  store i32 0, ptr %47, align 8, !tbaa !46
  br label %48

48:                                               ; preds = %32, %43, %23, %7
  %.044 = phi i32 [ -22, %7 ], [ -22, %23 ], [ 0, %43 ], [ -12, %32 ]
  ret i32 %.044
}